; ModuleID = '26/458.c'
source_filename = "26/458.c"
target datalayout = "e-m:e-p270:32:32-p271:32:32-p272:64:64-i64:64-f80:128-n8:16:32:64-S128"
target triple = "x86_64-pc-linux-gnu"

@.str = private unnamed_addr constant [3 x i8] c"%c\00", align 1

; Function Attrs: noinline nounwind uwtable
define dso_local i32 @main() #0 {
  %1 = alloca i32, align 4
  %2 = alloca [1000 x i8], align 16
  %3 = alloca i8, align 1
  %4 = alloca i32, align 4
  %5 = alloca i32, align 4
  %6 = alloca i32, align 4
  %7 = alloca i32, align 4
  %8 = alloca i32, align 4
  %9 = alloca [1000 x i32], align 16
  store i32 0, i32* %1, align 4
  store i32 0, i32* %5, align 4
  %10 = getelementptr inbounds [1000 x i8], [1000 x i8]* %2, i64 0, i64 0
  %11 = call i32 (i8*, ...) bitcast (i32 (...)* @gets to i32 (i8*, ...)*)(i8* %10)
  %12 = getelementptr inbounds [1000 x i8], [1000 x i8]* %2, i64 0, i64 0
  %13 = call i64 @strlen(i8* %12) #3
  %14 = trunc i64 %13 to i32
  store i32 %14, i32* %7, align 4
  store i32 0, i32* %4, align 4
  br label %15

15:                                               ; preds = %23, %0
  %16 = load i32, i32* %4, align 4
  %17 = load i32, i32* %7, align 4
  %18 = icmp slt i32 %16, %17
  br i1 %18, label %19, label %26

19:                                               ; preds = %15
  %20 = load i32, i32* %4, align 4
  %21 = sext i32 %20 to i64
  %22 = getelementptr inbounds [1000 x i32], [1000 x i32]* %9, i64 0, i64 %21
  store i32 1, i32* %22, align 4
  br label %23

23:                                               ; preds = %19
  %24 = load i32, i32* %4, align 4
  %25 = add nsw i32 %24, 1
  store i32 %25, i32* %4, align 4
  br label %15

26:                                               ; preds = %15
  store i32 1, i32* %4, align 4
  br label %27

27:                                               ; preds = %71, %26
  %28 = load i32, i32* %4, align 4
  %29 = load i32, i32* %7, align 4
  %30 = icmp slt i32 %28, %29
  br i1 %30, label %31, label %74

31:                                               ; preds = %27
  %32 = load i32, i32* %4, align 4
  %33 = sub nsw i32 %32, 1
  %34 = sext i32 %33 to i64
  %35 = getelementptr inbounds [1000 x i32], [1000 x i32]* %9, i64 0, i64 %34
  %36 = load i32, i32* %35, align 4
  %37 = load i32, i32* %4, align 4
  %38 = sext i32 %37 to i64
  %39 = getelementptr inbounds [1000 x i32], [1000 x i32]* %9, i64 0, i64 %38
  store i32 %36, i32* %39, align 4
  %40 = load i32, i32* %4, align 4
  %41 = sext i32 %40 to i64
  %42 = getelementptr inbounds [1000 x i8], [1000 x i8]* %2, i64 0, i64 %41
  %43 = load i8, i8* %42, align 1
  %44 = sext i8 %43 to i32
  %45 = icmp eq i32 %44, 32
  br i1 %45, label %46, label %52

46:                                               ; preds = %31
  %47 = load i32, i32* %4, align 4
  %48 = sext i32 %47 to i64
  %49 = getelementptr inbounds [1000 x i32], [1000 x i32]* %9, i64 0, i64 %48
  %50 = load i32, i32* %49, align 4
  %51 = add nsw i32 %50, -1
  store i32 %51, i32* %49, align 4
  br label %52

52:                                               ; preds = %46, %31
  %53 = load i32, i32* %4, align 4
  %54 = sext i32 %53 to i64
  %55 = getelementptr inbounds [1000 x i8], [1000 x i8]* %2, i64 0, i64 %54
  %56 = load i8, i8* %55, align 1
  %57 = sext i8 %56 to i32
  %58 = icmp ne i32 %57, 32
  br i1 %58, label %59, label %70

59:                                               ; preds = %52
  %60 = load i32, i32* %4, align 4
  %61 = sub nsw i32 %60, 1
  %62 = sext i32 %61 to i64
  %63 = getelementptr inbounds [1000 x i32], [1000 x i32]* %9, i64 0, i64 %62
  %64 = load i32, i32* %63, align 4
  %65 = icmp sle i32 %64, 0
  br i1 %65, label %66, label %70

66:                                               ; preds = %59
  %67 = load i32, i32* %4, align 4
  %68 = sext i32 %67 to i64
  %69 = getelementptr inbounds [1000 x i32], [1000 x i32]* %9, i64 0, i64 %68
  store i32 1, i32* %69, align 4
  br label %70

70:                                               ; preds = %66, %59, %52
  br label %71

71:                                               ; preds = %70
  %72 = load i32, i32* %4, align 4
  %73 = add nsw i32 %72, 1
  store i32 %73, i32* %4, align 4
  br label %27

74:                                               ; preds = %27
  store i32 0, i32* %4, align 4
  br label %75

75:                                               ; preds = %93, %74
  %76 = load i32, i32* %4, align 4
  %77 = load i32, i32* %7, align 4
  %78 = icmp slt i32 %76, %77
  br i1 %78, label %79, label %96

79:                                               ; preds = %75
  %80 = load i32, i32* %4, align 4
  %81 = sext i32 %80 to i64
  %82 = getelementptr inbounds [1000 x i32], [1000 x i32]* %9, i64 0, i64 %81
  %83 = load i32, i32* %82, align 4
  %84 = icmp sge i32 %83, 0
  br i1 %84, label %85, label %92

85:                                               ; preds = %79
  %86 = load i32, i32* %4, align 4
  %87 = sext i32 %86 to i64
  %88 = getelementptr inbounds [1000 x i8], [1000 x i8]* %2, i64 0, i64 %87
  %89 = load i8, i8* %88, align 1
  %90 = sext i8 %89 to i32
  %91 = call i32 (i8*, ...) @printf(i8* getelementptr inbounds ([3 x i8], [3 x i8]* @.str, i64 0, i64 0), i32 %90)
  br label %92

92:                                               ; preds = %85, %79
  br label %93

93:                                               ; preds = %92
  %94 = load i32, i32* %4, align 4
  %95 = add nsw i32 %94, 1
  store i32 %95, i32* %4, align 4
  br label %75

96:                                               ; preds = %75
  %97 = load i32, i32* %1, align 4
  ret i32 %97
}

declare dso_local i32 @gets(...) #1

; Function Attrs: nounwind readonly
declare dso_local i64 @strlen(i8*) #2

declare dso_local i32 @printf(i8*, ...) #1


!llvm.module.flags = !{!0}
!llvm.ident = !{!1}

!0 = !{i32 1, !"wchar_size", i32 4}
!1 = !{!"clang version 10.0.0-4ubuntu1 "}
